target datalayout = "e-m:e-p270:32:32-p271:32:32-p272:64:64-i64:64-i128:128-f80:128-n8:16:32:64-S128"
target triple = "x86_64-pc-linux-gnu"

%"class.std::__cxx11::basic_string" = type { %"struct.std::__cxx11::basic_string<char>::_Alloc_hider", i64, %union.anon.8 }
%"struct.std::__cxx11::basic_string<char>::_Alloc_hider" = type { ptr }
%union.anon.8 = type { i64, [8 x i8] }
%"struct.cmWorkerPool::ProcessResultT" = type { i64, i32, %"class.std::__cxx11::basic_string", %"class.std::__cxx11::basic_string", %"class.std::__cxx11::basic_string" }

; Function Attrs: mustprogress nounwind uwtable
define dso_local void @_ZN12cmWorkerPool14ProcessResultT5resetEv(ptr noundef nonnull align 8 dereferenceable(112) %0) #2 align 2 {
  %2 = alloca ptr, align 8
  store ptr %0, ptr %2, align 8
  %3 = load ptr, ptr %2, align 8
  %4 = getelementptr inbounds %"struct.cmWorkerPool::ProcessResultT", ptr %3, i32 0, i32 0
  store i64 0, ptr %4, align 8
  %5 = getelementptr inbounds %"struct.cmWorkerPool::ProcessResultT", ptr %3, i32 0, i32 1
  store i32 0, ptr %5, align 8
  %6 = getelementptr inbounds %"struct.cmWorkerPool::ProcessResultT", ptr %3, i32 0, i32 2
  %7 = call noundef zeroext i1 @_ZNKSt7__cxx1112basic_stringIcSt11char_traitsIcESaIcEE5emptyEv(ptr noundef nonnull align 8 dereferenceable(32) %6) #12
  br i1 %7, label %11, label %8

8:                                                ; preds = %1
  %9 = getelementptr inbounds %"struct.cmWorkerPool::ProcessResultT", ptr %3, i32 0, i32 2
  call void @_ZNSt7__cxx1112basic_stringIcSt11char_traitsIcESaIcEE5clearEv(ptr noundef nonnull align 8 dereferenceable(32) %9) #12
  %10 = getelementptr inbounds %"struct.cmWorkerPool::ProcessResultT", ptr %3, i32 0, i32 2
  call void @_ZNSt7__cxx1112basic_stringIcSt11char_traitsIcESaIcEE13shrink_to_fitEv(ptr noundef nonnull align 8 dereferenceable(32) %10) #12
  br label %11

11:                                               ; preds = %8, %1
  %12 = getelementptr inbounds %"struct.cmWorkerPool::ProcessResultT", ptr %3, i32 0, i32 3
  %13 = call noundef zeroext i1 @_ZNKSt7__cxx1112basic_stringIcSt11char_traitsIcESaIcEE5emptyEv(ptr noundef nonnull align 8 dereferenceable(32) %12) #12
  br i1 %13, label %17, label %14

14:                                               ; preds = %11
  %15 = getelementptr inbounds %"struct.cmWorkerPool::ProcessResultT", ptr %3, i32 0, i32 3
  call void @_ZNSt7__cxx1112basic_stringIcSt11char_traitsIcESaIcEE5clearEv(ptr noundef nonnull align 8 dereferenceable(32) %15) #12
  %16 = getelementptr inbounds %"struct.cmWorkerPool::ProcessResultT", ptr %3, i32 0, i32 3
  call void @_ZNSt7__cxx1112basic_stringIcSt11char_traitsIcESaIcEE13shrink_to_fitEv(ptr noundef nonnull align 8 dereferenceable(32) %16) #12
  br label %17

17:                                               ; preds = %14, %11
  %18 = getelementptr inbounds %"struct.cmWorkerPool::ProcessResultT", ptr %3, i32 0, i32 4
  %19 = call noundef zeroext i1 @_ZNKSt7__cxx1112basic_stringIcSt11char_traitsIcESaIcEE5emptyEv(ptr noundef nonnull align 8 dereferenceable(32) %18) #12
  br i1 %19, label %23, label %20

20:                                               ; preds = %17
  %21 = getelementptr inbounds %"struct.cmWorkerPool::ProcessResultT", ptr %3, i32 0, i32 4
  call void @_ZNSt7__cxx1112basic_stringIcSt11char_traitsIcESaIcEE5clearEv(ptr noundef nonnull align 8 dereferenceable(32) %21) #12
  %22 = getelementptr inbounds %"struct.cmWorkerPool::ProcessResultT", ptr %3, i32 0, i32 4
  call void @_ZNSt7__cxx1112basic_stringIcSt11char_traitsIcESaIcEE13shrink_to_fitEv(ptr noundef nonnull align 8 dereferenceable(32) %22) #12
  br label %23

23:                                               ; preds = %20, %17
  ret void
}