; Function Attrs: mustprogress nounwind uwtable
define dso_local void @_ZN12cmWorkerPool14ProcessResultT5resetEv(ptr noundef nonnull align 8 dereferenceable(112) %0) local_unnamed_addr #2 align 2 {
  store i64 0, ptr %0, align 8
  %2 = getelementptr inbounds i8, ptr %0, i64 8
  store i32 0, ptr %2, align 8
  %3 = getelementptr inbounds i8, ptr %0, i64 16
  %4 = tail call noundef zeroext i1 @_ZNKSt7__cxx1112basic_stringIcSt11char_traitsIcESaIcEE5emptyEv(ptr noundef nonnull align 8 dereferenceable(32) %3) #20
  br i1 %4, label %6, label %5

5:                                                ; preds = %1
  tail call void @_ZNSt7__cxx1112basic_stringIcSt11char_traitsIcESaIcEE5clearEv(ptr noundef nonnull align 8 dereferenceable(32) %3) #20
  tail call void @_ZNSt7__cxx1112basic_stringIcSt11char_traitsIcESaIcEE13shrink_to_fitEv(ptr noundef nonnull align 8 dereferenceable(32) %3) #20
  br label %6

6:                                                ; preds = %5, %1
  %7 = getelementptr inbounds i8, ptr %0, i64 48
  %8 = tail call noundef zeroext i1 @_ZNKSt7__cxx1112basic_stringIcSt11char_traitsIcESaIcEE5emptyEv(ptr noundef nonnull align 8 dereferenceable(32) %7) #20
  br i1 %8, label %10, label %9

9:                                                ; preds = %6
  tail call void @_ZNSt7__cxx1112basic_stringIcSt11char_traitsIcESaIcEE5clearEv(ptr noundef nonnull align 8 dereferenceable(32) %7) #20
  tail call void @_ZNSt7__cxx1112basic_stringIcSt11char_traitsIcESaIcEE13shrink_to_fitEv(ptr noundef nonnull align 8 dereferenceable(32) %7) #20
  br label %10

10:                                               ; preds = %9, %6
  %11 = getelementptr inbounds i8, ptr %0, i64 80
  %12 = tail call noundef zeroext i1 @_ZNKSt7__cxx1112basic_stringIcSt11char_traitsIcESaIcEE5emptyEv(ptr noundef nonnull align 8 dereferenceable(32) %11) #20
  br i1 %12, label %14, label %13

13:                                               ; preds = %10
  tail call void @_ZNSt7__cxx1112basic_stringIcSt11char_traitsIcESaIcEE5clearEv(ptr noundef nonnull align 8 dereferenceable(32) %11) #20
  tail call void @_ZNSt7__cxx1112basic_stringIcSt11char_traitsIcESaIcEE13shrink_to_fitEv(ptr noundef nonnull align 8 dereferenceable(32) %11) #20
  br label %14

14:                                               ; preds = %13, %10
  ret void
}